; Function Attrs: mustprogress uwtable
define internal noundef ptr @_ZNK6icu_7712_GLOBAL__N_114PatternHandler5cloneEv(ptr noundef nonnull align 8 dereferenceable(152) %0) unnamed_addr #1 align 2 personality ptr @__gxx_personality_v0 {
  %2 = tail call noundef ptr @_ZN6icu_777UMemorynwEm(i64 noundef 152) #19
  %3 = icmp eq ptr %2, null
  br i1 %3, label %_ZN6icu_7712_GLOBAL__N_114PatternHandlerC2ERKNS_15SimpleFormatterES4_.exit, label %4

4:                                                ; preds = %1
  store ptr getelementptr inbounds nuw inrange(-16, 48) (i8, ptr @_ZTVN6icu_7712_GLOBAL__N_114PatternHandlerE, i64 16), ptr %2, align 8, !tbaa !15
  %5 = getelementptr inbounds nuw i8, ptr %2, i64 8
  %6 = getelementptr inbounds nuw i8, ptr %2, i64 16
  %7 = getelementptr inbounds nuw i8, ptr %0, i64 16
  invoke void @_ZN6icu_7713UnicodeStringC1ERKS0_(ptr noundef nonnull align 8 dereferenceable(64) %6, ptr noundef nonnull align 8 dereferenceable(64) %7)
          to label %_ZN6icu_7715SimpleFormatterC2ERKS0_.exit.i unwind label %10

_ZN6icu_7715SimpleFormatterC2ERKS0_.exit.i:       ; preds = %4
  %8 = getelementptr inbounds nuw i8, ptr %2, i64 88
  %9 = getelementptr inbounds nuw i8, ptr %0, i64 88
  invoke void @_ZN6icu_7713UnicodeStringC1ERKS0_(ptr noundef nonnull align 8 dereferenceable(64) %8, ptr noundef nonnull align 8 dereferenceable(64) %9)
          to label %_ZN6icu_7712_GLOBAL__N_114PatternHandlerC2ERKNS_15SimpleFormatterES4_.exit unwind label %12

10:                                               ; preds = %4
  %11 = landingpad { ptr, i32 }
          cleanup
  br label %.body

12:                                               ; preds = %_ZN6icu_7715SimpleFormatterC2ERKS0_.exit.i
  %13 = landingpad { ptr, i32 }
          cleanup
  tail call void @_ZN6icu_7715SimpleFormatterD1Ev(ptr noundef nonnull align 8 dereferenceable(72) %5) #19
  br label %.body

.body:                                            ; preds = %12, %10
  %.pn.i = phi { ptr, i32 } [ %13, %12 ], [ %11, %10 ]
  tail call void @_ZN6icu_777UObjectD2Ev(ptr noundef nonnull align 8 dereferenceable(152) %2) #19
  tail call void @_ZN6icu_777UMemorydlEPv(ptr noundef nonnull %2) #19
  resume { ptr, i32 } %.pn.i

_ZN6icu_7712_GLOBAL__N_114PatternHandlerC2ERKNS_15SimpleFormatterES4_.exit: ; preds = %_ZN6icu_7715SimpleFormatterC2ERKS0_.exit.i, %1
  ret ptr %2
}